; ModuleID = '39/735.c'
source_filename = "39/735.c"
target datalayout = "e-m:e-p270:32:32-p271:32:32-p272:64:64-i64:64-f80:128-n8:16:32:64-S128"
target triple = "x86_64-pc-linux-gnu"

%struct.stu = type { [20 x i8], i32, i32, [2 x i8], [2 x i8], i32 }

@.str = private unnamed_addr constant [3 x i8] c"%d\00", align 1
@.str.1 = private unnamed_addr constant [3 x i8] c"%s\00", align 1
@.str.2 = private unnamed_addr constant [4 x i8] c"%s\0A\00", align 1
@.str.3 = private unnamed_addr constant [4 x i8] c"%d\0A\00", align 1

; Function Attrs: noinline nounwind uwtable
define dso_local void @main() #0 {
  %1 = alloca [101 x %struct.stu], align 16
  %2 = alloca i32, align 4
  %3 = alloca i32, align 4
  %4 = alloca i32, align 4
  %5 = alloca i32, align 4
  %6 = alloca [101 x i32], align 16
  %7 = alloca [30 x i8], align 16
  %8 = call i32 (i8*, ...) @__isoc99_scanf(i8* getelementptr inbounds ([3 x i8], [3 x i8]* @.str, i64 0, i64 0), i32* %2)
  store i32 0, i32* %4, align 4
  br label %9

9:                                                ; preds = %162, %0
  %10 = load i32, i32* %4, align 4
  %11 = load i32, i32* %2, align 4
  %12 = icmp slt i32 %10, %11
  br i1 %12, label %13, label %165

13:                                               ; preds = %9
  %14 = load i32, i32* %4, align 4
  %15 = sext i32 %14 to i64
  %16 = getelementptr inbounds [101 x %struct.stu], [101 x %struct.stu]* %1, i64 0, i64 %15
  %17 = getelementptr inbounds %struct.stu, %struct.stu* %16, i32 0, i32 0
  %18 = getelementptr inbounds [20 x i8], [20 x i8]* %17, i64 0, i64 0
  %19 = call i32 (i8*, ...) @__isoc99_scanf(i8* getelementptr inbounds ([3 x i8], [3 x i8]* @.str.1, i64 0, i64 0), i8* %18)
  %20 = load i32, i32* %4, align 4
  %21 = sext i32 %20 to i64
  %22 = getelementptr inbounds [101 x %struct.stu], [101 x %struct.stu]* %1, i64 0, i64 %21
  %23 = getelementptr inbounds %struct.stu, %struct.stu* %22, i32 0, i32 1
  %24 = call i32 (i8*, ...) @__isoc99_scanf(i8* getelementptr inbounds ([3 x i8], [3 x i8]* @.str, i64 0, i64 0), i32* %23)
  %25 = load i32, i32* %4, align 4
  %26 = sext i32 %25 to i64
  %27 = getelementptr inbounds [101 x %struct.stu], [101 x %struct.stu]* %1, i64 0, i64 %26
  %28 = getelementptr inbounds %struct.stu, %struct.stu* %27, i32 0, i32 2
  %29 = call i32 (i8*, ...) @__isoc99_scanf(i8* getelementptr inbounds ([3 x i8], [3 x i8]* @.str, i64 0, i64 0), i32* %28)
  %30 = load i32, i32* %4, align 4
  %31 = sext i32 %30 to i64
  %32 = getelementptr inbounds [101 x %struct.stu], [101 x %struct.stu]* %1, i64 0, i64 %31
  %33 = getelementptr inbounds %struct.stu, %struct.stu* %32, i32 0, i32 3
  %34 = getelementptr inbounds [2 x i8], [2 x i8]* %33, i64 0, i64 0
  %35 = call i32 (i8*, ...) @__isoc99_scanf(i8* getelementptr inbounds ([3 x i8], [3 x i8]* @.str.1, i64 0, i64 0), i8* %34)
  %36 = load i32, i32* %4, align 4
  %37 = sext i32 %36 to i64
  %38 = getelementptr inbounds [101 x %struct.stu], [101 x %struct.stu]* %1, i64 0, i64 %37
  %39 = getelementptr inbounds %struct.stu, %struct.stu* %38, i32 0, i32 4
  %40 = getelementptr inbounds [2 x i8], [2 x i8]* %39, i64 0, i64 0
  %41 = call i32 (i8*, ...) @__isoc99_scanf(i8* getelementptr inbounds ([3 x i8], [3 x i8]* @.str.1, i64 0, i64 0), i8* %40)
  %42 = load i32, i32* %4, align 4
  %43 = sext i32 %42 to i64
  %44 = getelementptr inbounds [101 x %struct.stu], [101 x %struct.stu]* %1, i64 0, i64 %43
  %45 = getelementptr inbounds %struct.stu, %struct.stu* %44, i32 0, i32 5
  %46 = call i32 (i8*, ...) @__isoc99_scanf(i8* getelementptr inbounds ([3 x i8], [3 x i8]* @.str, i64 0, i64 0), i32* %45)
  %47 = load i32, i32* %4, align 4
  %48 = sext i32 %47 to i64
  %49 = getelementptr inbounds [101 x i32], [101 x i32]* %6, i64 0, i64 %48
  store i32 0, i32* %49, align 4
  %50 = load i32, i32* %4, align 4
  %51 = sext i32 %50 to i64
  %52 = getelementptr inbounds [101 x %struct.stu], [101 x %struct.stu]* %1, i64 0, i64 %51
  %53 = getelementptr inbounds %struct.stu, %struct.stu* %52, i32 0, i32 1
  %54 = load i32, i32* %53, align 4
  %55 = icmp sgt i32 %54, 80
  br i1 %55, label %56, label %72

56:                                               ; preds = %13
  %57 = load i32, i32* %4, align 4
  %58 = sext i32 %57 to i64
  %59 = getelementptr inbounds [101 x %struct.stu], [101 x %struct.stu]* %1, i64 0, i64 %58
  %60 = getelementptr inbounds %struct.stu, %struct.stu* %59, i32 0, i32 5
  %61 = load i32, i32* %60, align 4
  %62 = icmp sge i32 %61, 1
  br i1 %62, label %63, label %72

63:                                               ; preds = %56
  %64 = load i32, i32* %4, align 4
  %65 = sext i32 %64 to i64
  %66 = getelementptr inbounds [101 x i32], [101 x i32]* %6, i64 0, i64 %65
  %67 = load i32, i32* %66, align 4
  %68 = add nsw i32 %67, 8000
  %69 = load i32, i32* %4, align 4
  %70 = sext i32 %69 to i64
  %71 = getelementptr inbounds [101 x i32], [101 x i32]* %6, i64 0, i64 %70
  store i32 %68, i32* %71, align 4
  br label %72

72:                                               ; preds = %63, %56, %13
  %73 = load i32, i32* %4, align 4
  %74 = sext i32 %73 to i64
  %75 = getelementptr inbounds [101 x %struct.stu], [101 x %struct.stu]* %1, i64 0, i64 %74
  %76 = getelementptr inbounds %struct.stu, %struct.stu* %75, i32 0, i32 1
  %77 = load i32, i32* %76, align 4
  %78 = icmp sgt i32 %77, 85
  br i1 %78, label %79, label %95

79:                                               ; preds = %72
  %80 = load i32, i32* %4, align 4
  %81 = sext i32 %80 to i64
  %82 = getelementptr inbounds [101 x %struct.stu], [101 x %struct.stu]* %1, i64 0, i64 %81
  %83 = getelementptr inbounds %struct.stu, %struct.stu* %82, i32 0, i32 2
  %84 = load i32, i32* %83, align 4
  %85 = icmp sgt i32 %84, 80
  br i1 %85, label %86, label %95

86:                                               ; preds = %79
  %87 = load i32, i32* %4, align 4
  %88 = sext i32 %87 to i64
  %89 = getelementptr inbounds [101 x i32], [101 x i32]* %6, i64 0, i64 %88
  %90 = load i32, i32* %89, align 4
  %91 = add nsw i32 %90, 4000
  %92 = load i32, i32* %4, align 4
  %93 = sext i32 %92 to i64
  %94 = getelementptr inbounds [101 x i32], [101 x i32]* %6, i64 0, i64 %93
  store i32 %91, i32* %94, align 4
  br label %95

95:                                               ; preds = %86, %79, %72
  %96 = load i32, i32* %4, align 4
  %97 = sext i32 %96 to i64
  %98 = getelementptr inbounds [101 x %struct.stu], [101 x %struct.stu]* %1, i64 0, i64 %97
  %99 = getelementptr inbounds %struct.stu, %struct.stu* %98, i32 0, i32 1
  %100 = load i32, i32* %99, align 4
  %101 = icmp sgt i32 %100, 90
  br i1 %101, label %102, label %111

102:                                              ; preds = %95
  %103 = load i32, i32* %4, align 4
  %104 = sext i32 %103 to i64
  %105 = getelementptr inbounds [101 x i32], [101 x i32]* %6, i64 0, i64 %104
  %106 = load i32, i32* %105, align 4
  %107 = add nsw i32 %106, 2000
  %108 = load i32, i32* %4, align 4
  %109 = sext i32 %108 to i64
  %110 = getelementptr inbounds [101 x i32], [101 x i32]* %6, i64 0, i64 %109
  store i32 %107, i32* %110, align 4
  br label %111

111:                                              ; preds = %102, %95
  %112 = load i32, i32* %4, align 4
  %113 = sext i32 %112 to i64
  %114 = getelementptr inbounds [101 x %struct.stu], [101 x %struct.stu]* %1, i64 0, i64 %113
  %115 = getelementptr inbounds %struct.stu, %struct.stu* %114, i32 0, i32 1
  %116 = load i32, i32* %115, align 4
  %117 = icmp sgt i32 %116, 85
  br i1 %117, label %118, label %136

118:                                              ; preds = %111
  %119 = load i32, i32* %4, align 4
  %120 = sext i32 %119 to i64
  %121 = getelementptr inbounds [101 x %struct.stu], [101 x %struct.stu]* %1, i64 0, i64 %120
  %122 = getelementptr inbounds %struct.stu, %struct.stu* %121, i32 0, i32 4
  %123 = getelementptr inbounds [2 x i8], [2 x i8]* %122, i64 0, i64 0
  %124 = load i8, i8* %123, align 2
  %125 = sext i8 %124 to i32
  %126 = icmp eq i32 %125, 89
  br i1 %126, label %127, label %136

127:                                              ; preds = %118
  %128 = load i32, i32* %4, align 4
  %129 = sext i32 %128 to i64
  %130 = getelementptr inbounds [101 x i32], [101 x i32]* %6, i64 0, i64 %129
  %131 = load i32, i32* %130, align 4
  %132 = add nsw i32 %131, 1000
  %133 = load i32, i32* %4, align 4
  %134 = sext i32 %133 to i64
  %135 = getelementptr inbounds [101 x i32], [101 x i32]* %6, i64 0, i64 %134
  store i32 %132, i32* %135, align 4
  br label %136

136:                                              ; preds = %127, %118, %111
  %137 = load i32, i32* %4, align 4
  %138 = sext i32 %137 to i64
  %139 = getelementptr inbounds [101 x %struct.stu], [101 x %struct.stu]* %1, i64 0, i64 %138
  %140 = getelementptr inbounds %struct.stu, %struct.stu* %139, i32 0, i32 2
  %141 = load i32, i32* %140, align 4
  %142 = icmp sgt i32 %141, 80
  br i1 %142, label %143, label %161

143:                                              ; preds = %136
  %144 = load i32, i32* %4, align 4
  %145 = sext i32 %144 to i64
  %146 = getelementptr inbounds [101 x %struct.stu], [101 x %struct.stu]* %1, i64 0, i64 %145
  %147 = getelementptr inbounds %struct.stu, %struct.stu* %146, i32 0, i32 3
  %148 = getelementptr inbounds [2 x i8], [2 x i8]* %147, i64 0, i64 0
  %149 = load i8, i8* %148, align 4
  %150 = sext i8 %149 to i32
  %151 = icmp eq i32 %150, 89
  br i1 %151, label %152, label %161

152:                                              ; preds = %143
  %153 = load i32, i32* %4, align 4
  %154 = sext i32 %153 to i64
  %155 = getelementptr inbounds [101 x i32], [101 x i32]* %6, i64 0, i64 %154
  %156 = load i32, i32* %155, align 4
  %157 = add nsw i32 %156, 850
  %158 = load i32, i32* %4, align 4
  %159 = sext i32 %158 to i64
  %160 = getelementptr inbounds [101 x i32], [101 x i32]* %6, i64 0, i64 %159
  store i32 %157, i32* %160, align 4
  br label %161

161:                                              ; preds = %152, %143, %136
  br label %162

162:                                              ; preds = %161
  %163 = load i32, i32* %4, align 4
  %164 = add nsw i32 %163, 1
  store i32 %164, i32* %4, align 4
  br label %9

165:                                              ; preds = %9
  %166 = getelementptr inbounds [101 x i32], [101 x i32]* %6, i64 0, i64 0
  %167 = load i32, i32* %166, align 16
  store i32 %167, i32* %3, align 4
  %168 = getelementptr inbounds [30 x i8], [30 x i8]* %7, i64 0, i64 0
  %169 = getelementptr inbounds [101 x %struct.stu], [101 x %struct.stu]* %1, i64 0, i64 0
  %170 = getelementptr inbounds %struct.stu, %struct.stu* %169, i32 0, i32 0
  %171 = getelementptr inbounds [20 x i8], [20 x i8]* %170, i64 0, i64 0
  %172 = call i8* @strcpy(i8* %168, i8* %171) #3
  %173 = getelementptr inbounds [101 x i32], [101 x i32]* %6, i64 0, i64 0
  %174 = load i32, i32* %173, align 16
  store i32 %174, i32* %5, align 4
  store i32 1, i32* %4, align 4
  br label %175

175:                                              ; preds = %205, %165
  %176 = load i32, i32* %4, align 4
  %177 = load i32, i32* %2, align 4
  %178 = icmp slt i32 %176, %177
  br i1 %178, label %179, label %208

179:                                              ; preds = %175
  %180 = load i32, i32* %4, align 4
  %181 = sext i32 %180 to i64
  %182 = getelementptr inbounds [101 x i32], [101 x i32]* %6, i64 0, i64 %181
  %183 = load i32, i32* %182, align 4
  %184 = load i32, i32* %3, align 4
  %185 = icmp sgt i32 %183, %184
  br i1 %185, label %186, label %198

186:                                              ; preds = %179
  %187 = load i32, i32* %4, align 4
  %188 = sext i32 %187 to i64
  %189 = getelementptr inbounds [101 x i32], [101 x i32]* %6, i64 0, i64 %188
  %190 = load i32, i32* %189, align 4
  store i32 %190, i32* %3, align 4
  %191 = getelementptr inbounds [30 x i8], [30 x i8]* %7, i64 0, i64 0
  %192 = load i32, i32* %4, align 4
  %193 = sext i32 %192 to i64
  %194 = getelementptr inbounds [101 x %struct.stu], [101 x %struct.stu]* %1, i64 0, i64 %193
  %195 = getelementptr inbounds %struct.stu, %struct.stu* %194, i32 0, i32 0
  %196 = getelementptr inbounds [20 x i8], [20 x i8]* %195, i64 0, i64 0
  %197 = call i8* @strcpy(i8* %191, i8* %196) #3
  br label %198

198:                                              ; preds = %186, %179
  %199 = load i32, i32* %5, align 4
  %200 = load i32, i32* %4, align 4
  %201 = sext i32 %200 to i64
  %202 = getelementptr inbounds [101 x i32], [101 x i32]* %6, i64 0, i64 %201
  %203 = load i32, i32* %202, align 4
  %204 = add nsw i32 %199, %203
  store i32 %204, i32* %5, align 4
  br label %205

205:                                              ; preds = %198
  %206 = load i32, i32* %4, align 4
  %207 = add nsw i32 %206, 1
  store i32 %207, i32* %4, align 4
  br label %175

208:                                              ; preds = %175
  %209 = getelementptr inbounds [30 x i8], [30 x i8]* %7, i64 0, i64 0
  %210 = call i32 (i8*, ...) @printf(i8* getelementptr inbounds ([4 x i8], [4 x i8]* @.str.2, i64 0, i64 0), i8* %209)
  %211 = load i32, i32* %3, align 4
  %212 = call i32 (i8*, ...) @printf(i8* getelementptr inbounds ([4 x i8], [4 x i8]* @.str.3, i64 0, i64 0), i32 %211)
  %213 = load i32, i32* %5, align 4
  %214 = call i32 (i8*, ...) @printf(i8* getelementptr inbounds ([4 x i8], [4 x i8]* @.str.3, i64 0, i64 0), i32 %213)
  ret void
}

declare dso_local i32 @__isoc99_scanf(i8*, ...) #1

; Function Attrs: nounwind
declare dso_local i8* @strcpy(i8*, i8*) #2

declare dso_local i32 @printf(i8*, ...) #1


!llvm.module.flags = !{!0}
!llvm.ident = !{!1}

!0 = !{i32 1, !"wchar_size", i32 4}
!1 = !{!"clang version 10.0.0-4ubuntu1 "}
